target datalayout = "e-m:e-p270:32:32-p271:32:32-p272:64:64-i64:64-i128:128-f80:128-n8:16:32:64-S128"
target triple = "x86_64-unknown-linux-gnu"

%union.AESState = type { <16 x i8> }

; Function Attrs: nounwind sspstrong uwtable
define internal void @aesdec_ISB_ISR_AK_swap(ptr noundef %ret, ptr noundef %st, ptr noundef %rk, i1 noundef zeroext %swap) #0 {
entry:
  %ret.addr = alloca ptr, align 8
  %st.addr = alloca ptr, align 8
  %rk.addr = alloca ptr, align 8
  %swap.addr = alloca i8, align 1
  %swap_b = alloca i32, align 4
  %t = alloca %union.AESState, align 16
  store ptr %ret, ptr %ret.addr, align 8
  store ptr %st, ptr %st.addr, align 8
  store ptr %rk, ptr %rk.addr, align 8
  %frombool = zext i1 %swap to i8
  store i8 %frombool, ptr %swap.addr, align 1
  %0 = load i8, ptr %swap.addr, align 1
  %tobool = trunc i8 %0 to i1
  %cond = select i1 %tobool, i32 15, i32 0
  store i32 %cond, ptr %swap_b, align 4
  %1 = load ptr, ptr %st.addr, align 8
  %2 = load i32, ptr %swap_b, align 4
  %xor = xor i32 %2, 0
  %idxprom = sext i32 %xor to i64
  %arrayidx = getelementptr [16 x i8], ptr %1, i64 0, i64 %idxprom
  %3 = load i8, ptr %arrayidx, align 1
  %idxprom1 = zext i8 %3 to i64
  %arrayidx2 = getelementptr [256 x i8], ptr @AES_isbox, i64 0, i64 %idxprom1
  %4 = load i8, ptr %arrayidx2, align 1
  %5 = load i32, ptr %swap_b, align 4
  %xor3 = xor i32 %5, 0
  %idxprom4 = sext i32 %xor3 to i64
  %arrayidx5 = getelementptr [16 x i8], ptr %t, i64 0, i64 %idxprom4
  store i8 %4, ptr %arrayidx5, align 1
  %6 = load ptr, ptr %st.addr, align 8
  %7 = load i32, ptr %swap_b, align 4
  %xor6 = xor i32 %7, 13
  %idxprom7 = sext i32 %xor6 to i64
  %arrayidx8 = getelementptr [16 x i8], ptr %6, i64 0, i64 %idxprom7
  %8 = load i8, ptr %arrayidx8, align 1
  %idxprom9 = zext i8 %8 to i64
  %arrayidx10 = getelementptr [256 x i8], ptr @AES_isbox, i64 0, i64 %idxprom9
  %9 = load i8, ptr %arrayidx10, align 1
  %10 = load i32, ptr %swap_b, align 4
  %xor11 = xor i32 %10, 1
  %idxprom12 = sext i32 %xor11 to i64
  %arrayidx13 = getelementptr [16 x i8], ptr %t, i64 0, i64 %idxprom12
  store i8 %9, ptr %arrayidx13, align 1
  %11 = load ptr, ptr %st.addr, align 8
  %12 = load i32, ptr %swap_b, align 4
  %xor14 = xor i32 %12, 10
  %idxprom15 = sext i32 %xor14 to i64
  %arrayidx16 = getelementptr [16 x i8], ptr %11, i64 0, i64 %idxprom15
  %13 = load i8, ptr %arrayidx16, align 1
  %idxprom17 = zext i8 %13 to i64
  %arrayidx18 = getelementptr [256 x i8], ptr @AES_isbox, i64 0, i64 %idxprom17
  %14 = load i8, ptr %arrayidx18, align 1
  %15 = load i32, ptr %swap_b, align 4
  %xor19 = xor i32 %15, 2
  %idxprom20 = sext i32 %xor19 to i64
  %arrayidx21 = getelementptr [16 x i8], ptr %t, i64 0, i64 %idxprom20
  store i8 %14, ptr %arrayidx21, align 1
  %16 = load ptr, ptr %st.addr, align 8
  %17 = load i32, ptr %swap_b, align 4
  %xor22 = xor i32 %17, 7
  %idxprom23 = sext i32 %xor22 to i64
  %arrayidx24 = getelementptr [16 x i8], ptr %16, i64 0, i64 %idxprom23
  %18 = load i8, ptr %arrayidx24, align 1
  %idxprom25 = zext i8 %18 to i64
  %arrayidx26 = getelementptr [256 x i8], ptr @AES_isbox, i64 0, i64 %idxprom25
  %19 = load i8, ptr %arrayidx26, align 1
  %20 = load i32, ptr %swap_b, align 4
  %xor27 = xor i32 %20, 3
  %idxprom28 = sext i32 %xor27 to i64
  %arrayidx29 = getelementptr [16 x i8], ptr %t, i64 0, i64 %idxprom28
  store i8 %19, ptr %arrayidx29, align 1
  %21 = load ptr, ptr %st.addr, align 8
  %22 = load i32, ptr %swap_b, align 4
  %xor30 = xor i32 %22, 4
  %idxprom31 = sext i32 %xor30 to i64
  %arrayidx32 = getelementptr [16 x i8], ptr %21, i64 0, i64 %idxprom31
  %23 = load i8, ptr %arrayidx32, align 1
  %idxprom33 = zext i8 %23 to i64
  %arrayidx34 = getelementptr [256 x i8], ptr @AES_isbox, i64 0, i64 %idxprom33
  %24 = load i8, ptr %arrayidx34, align 1
  %25 = load i32, ptr %swap_b, align 4
  %xor35 = xor i32 %25, 4
  %idxprom36 = sext i32 %xor35 to i64
  %arrayidx37 = getelementptr [16 x i8], ptr %t, i64 0, i64 %idxprom36
  store i8 %24, ptr %arrayidx37, align 1
  %26 = load ptr, ptr %st.addr, align 8
  %27 = load i32, ptr %swap_b, align 4
  %xor38 = xor i32 %27, 1
  %idxprom39 = sext i32 %xor38 to i64
  %arrayidx40 = getelementptr [16 x i8], ptr %26, i64 0, i64 %idxprom39
  %28 = load i8, ptr %arrayidx40, align 1
  %idxprom41 = zext i8 %28 to i64
  %arrayidx42 = getelementptr [256 x i8], ptr @AES_isbox, i64 0, i64 %idxprom41
  %29 = load i8, ptr %arrayidx42, align 1
  %30 = load i32, ptr %swap_b, align 4
  %xor43 = xor i32 %30, 5
  %idxprom44 = sext i32 %xor43 to i64
  %arrayidx45 = getelementptr [16 x i8], ptr %t, i64 0, i64 %idxprom44
  store i8 %29, ptr %arrayidx45, align 1
  %31 = load ptr, ptr %st.addr, align 8
  %32 = load i32, ptr %swap_b, align 4
  %xor46 = xor i32 %32, 14
  %idxprom47 = sext i32 %xor46 to i64
  %arrayidx48 = getelementptr [16 x i8], ptr %31, i64 0, i64 %idxprom47
  %33 = load i8, ptr %arrayidx48, align 1
  %idxprom49 = zext i8 %33 to i64
  %arrayidx50 = getelementptr [256 x i8], ptr @AES_isbox, i64 0, i64 %idxprom49
  %34 = load i8, ptr %arrayidx50, align 1
  %35 = load i32, ptr %swap_b, align 4
  %xor51 = xor i32 %35, 6
  %idxprom52 = sext i32 %xor51 to i64
  %arrayidx53 = getelementptr [16 x i8], ptr %t, i64 0, i64 %idxprom52
  store i8 %34, ptr %arrayidx53, align 1
  %36 = load ptr, ptr %st.addr, align 8
  %37 = load i32, ptr %swap_b, align 4
  %xor54 = xor i32 %37, 11
  %idxprom55 = sext i32 %xor54 to i64
  %arrayidx56 = getelementptr [16 x i8], ptr %36, i64 0, i64 %idxprom55
  %38 = load i8, ptr %arrayidx56, align 1
  %idxprom57 = zext i8 %38 to i64
  %arrayidx58 = getelementptr [256 x i8], ptr @AES_isbox, i64 0, i64 %idxprom57
  %39 = load i8, ptr %arrayidx58, align 1
  %40 = load i32, ptr %swap_b, align 4
  %xor59 = xor i32 %40, 7
  %idxprom60 = sext i32 %xor59 to i64
  %arrayidx61 = getelementptr [16 x i8], ptr %t, i64 0, i64 %idxprom60
  store i8 %39, ptr %arrayidx61, align 1
  %41 = load ptr, ptr %st.addr, align 8
  %42 = load i32, ptr %swap_b, align 4
  %xor62 = xor i32 %42, 8
  %idxprom63 = sext i32 %xor62 to i64
  %arrayidx64 = getelementptr [16 x i8], ptr %41, i64 0, i64 %idxprom63
  %43 = load i8, ptr %arrayidx64, align 1
  %idxprom65 = zext i8 %43 to i64
  %arrayidx66 = getelementptr [256 x i8], ptr @AES_isbox, i64 0, i64 %idxprom65
  %44 = load i8, ptr %arrayidx66, align 1
  %45 = load i32, ptr %swap_b, align 4
  %xor67 = xor i32 %45, 8
  %idxprom68 = sext i32 %xor67 to i64
  %arrayidx69 = getelementptr [16 x i8], ptr %t, i64 0, i64 %idxprom68
  store i8 %44, ptr %arrayidx69, align 1
  %46 = load ptr, ptr %st.addr, align 8
  %47 = load i32, ptr %swap_b, align 4
  %xor70 = xor i32 %47, 5
  %idxprom71 = sext i32 %xor70 to i64
  %arrayidx72 = getelementptr [16 x i8], ptr %46, i64 0, i64 %idxprom71
  %48 = load i8, ptr %arrayidx72, align 1
  %idxprom73 = zext i8 %48 to i64
  %arrayidx74 = getelementptr [256 x i8], ptr @AES_isbox, i64 0, i64 %idxprom73
  %49 = load i8, ptr %arrayidx74, align 1
  %50 = load i32, ptr %swap_b, align 4
  %xor75 = xor i32 %50, 9
  %idxprom76 = sext i32 %xor75 to i64
  %arrayidx77 = getelementptr [16 x i8], ptr %t, i64 0, i64 %idxprom76
  store i8 %49, ptr %arrayidx77, align 1
  %51 = load ptr, ptr %st.addr, align 8
  %52 = load i32, ptr %swap_b, align 4
  %xor78 = xor i32 %52, 2
  %idxprom79 = sext i32 %xor78 to i64
  %arrayidx80 = getelementptr [16 x i8], ptr %51, i64 0, i64 %idxprom79
  %53 = load i8, ptr %arrayidx80, align 1
  %idxprom81 = zext i8 %53 to i64
  %arrayidx82 = getelementptr [256 x i8], ptr @AES_isbox, i64 0, i64 %idxprom81
  %54 = load i8, ptr %arrayidx82, align 1
  %55 = load i32, ptr %swap_b, align 4
  %xor83 = xor i32 %55, 10
  %idxprom84 = sext i32 %xor83 to i64
  %arrayidx85 = getelementptr [16 x i8], ptr %t, i64 0, i64 %idxprom84
  store i8 %54, ptr %arrayidx85, align 1
  %56 = load ptr, ptr %st.addr, align 8
  %57 = load i32, ptr %swap_b, align 4
  %xor86 = xor i32 %57, 15
  %idxprom87 = sext i32 %xor86 to i64
  %arrayidx88 = getelementptr [16 x i8], ptr %56, i64 0, i64 %idxprom87
  %58 = load i8, ptr %arrayidx88, align 1
  %idxprom89 = zext i8 %58 to i64
  %arrayidx90 = getelementptr [256 x i8], ptr @AES_isbox, i64 0, i64 %idxprom89
  %59 = load i8, ptr %arrayidx90, align 1
  %60 = load i32, ptr %swap_b, align 4
  %xor91 = xor i32 %60, 11
  %idxprom92 = sext i32 %xor91 to i64
  %arrayidx93 = getelementptr [16 x i8], ptr %t, i64 0, i64 %idxprom92
  store i8 %59, ptr %arrayidx93, align 1
  %61 = load ptr, ptr %st.addr, align 8
  %62 = load i32, ptr %swap_b, align 4
  %xor94 = xor i32 %62, 12
  %idxprom95 = sext i32 %xor94 to i64
  %arrayidx96 = getelementptr [16 x i8], ptr %61, i64 0, i64 %idxprom95
  %63 = load i8, ptr %arrayidx96, align 1
  %idxprom97 = zext i8 %63 to i64
  %arrayidx98 = getelementptr [256 x i8], ptr @AES_isbox, i64 0, i64 %idxprom97
  %64 = load i8, ptr %arrayidx98, align 1
  %65 = load i32, ptr %swap_b, align 4
  %xor99 = xor i32 %65, 12
  %idxprom100 = sext i32 %xor99 to i64
  %arrayidx101 = getelementptr [16 x i8], ptr %t, i64 0, i64 %idxprom100
  store i8 %64, ptr %arrayidx101, align 1
  %66 = load ptr, ptr %st.addr, align 8
  %67 = load i32, ptr %swap_b, align 4
  %xor102 = xor i32 %67, 9
  %idxprom103 = sext i32 %xor102 to i64
  %arrayidx104 = getelementptr [16 x i8], ptr %66, i64 0, i64 %idxprom103
  %68 = load i8, ptr %arrayidx104, align 1
  %idxprom105 = zext i8 %68 to i64
  %arrayidx106 = getelementptr [256 x i8], ptr @AES_isbox, i64 0, i64 %idxprom105
  %69 = load i8, ptr %arrayidx106, align 1
  %70 = load i32, ptr %swap_b, align 4
  %xor107 = xor i32 %70, 13
  %idxprom108 = sext i32 %xor107 to i64
  %arrayidx109 = getelementptr [16 x i8], ptr %t, i64 0, i64 %idxprom108
  store i8 %69, ptr %arrayidx109, align 1
  %71 = load ptr, ptr %st.addr, align 8
  %72 = load i32, ptr %swap_b, align 4
  %xor110 = xor i32 %72, 6
  %idxprom111 = sext i32 %xor110 to i64
  %arrayidx112 = getelementptr [16 x i8], ptr %71, i64 0, i64 %idxprom111
  %73 = load i8, ptr %arrayidx112, align 1
  %idxprom113 = zext i8 %73 to i64
  %arrayidx114 = getelementptr [256 x i8], ptr @AES_isbox, i64 0, i64 %idxprom113
  %74 = load i8, ptr %arrayidx114, align 1
  %75 = load i32, ptr %swap_b, align 4
  %xor115 = xor i32 %75, 14
  %idxprom116 = sext i32 %xor115 to i64
  %arrayidx117 = getelementptr [16 x i8], ptr %t, i64 0, i64 %idxprom116
  store i8 %74, ptr %arrayidx117, align 1
  %76 = load ptr, ptr %st.addr, align 8
  %77 = load i32, ptr %swap_b, align 4
  %xor118 = xor i32 %77, 3
  %idxprom119 = sext i32 %xor118 to i64
  %arrayidx120 = getelementptr [16 x i8], ptr %76, i64 0, i64 %idxprom119
  %78 = load i8, ptr %arrayidx120, align 1
  %idxprom121 = zext i8 %78 to i64
  %arrayidx122 = getelementptr [256 x i8], ptr @AES_isbox, i64 0, i64 %idxprom121
  %79 = load i8, ptr %arrayidx122, align 1
  %80 = load i32, ptr %swap_b, align 4
  %xor123 = xor i32 %80, 15
  %idxprom124 = sext i32 %xor123 to i64
  %arrayidx125 = getelementptr [16 x i8], ptr %t, i64 0, i64 %idxprom124
  store i8 %79, ptr %arrayidx125, align 1
  %81 = load <16 x i8>, ptr %t, align 16
  %82 = load ptr, ptr %rk.addr, align 8
  %83 = load <16 x i8>, ptr %82, align 16
  %xor126 = xor <16 x i8> %81, %83
  %84 = load ptr, ptr %ret.addr, align 8
  store <16 x i8> %xor126, ptr %84, align 16
  ret void
}

; Function Attrs: nounwind sspstrong uwtable
define dso_local void @aesdec_ISB_ISR_AK_genrev(ptr noundef %r, ptr noundef %s, ptr noundef %k) #0 {
entry:
  %r.addr = alloca ptr, align 8
  %s.addr = alloca ptr, align 8
  %k.addr = alloca ptr, align 8
  store ptr %r, ptr %r.addr, align 8
  store ptr %s, ptr %s.addr, align 8
  store ptr %k, ptr %k.addr, align 8
  %0 = load ptr, ptr %r.addr, align 8
  %1 = load ptr, ptr %s.addr, align 8
  %2 = load ptr, ptr %k.addr, align 8
  call void @aesdec_ISB_ISR_AK_swap(ptr noundef %0, ptr noundef %1, ptr noundef %2, i1 noundef zeroext true)
  ret void
}