; Function Attrs: mustprogress nofree norecurse nosync nounwind sspstrong willreturn memory(argmem: readwrite) uwtable
define dso_local void @aesdec_ISB_ISR_AK_genrev(ptr noundef writeonly captures(none) initializes((0, 16)) %r, ptr noundef readonly captures(none) %s, ptr noundef readonly captures(none) %k) local_unnamed_addr #1 {
entry:
  %k.val = load <16 x i8>, ptr %k, align 16
  %arrayidx.i = getelementptr i8, ptr %s, i64 15
  %0 = load i8, ptr %arrayidx.i, align 1
  %idxprom1.i = zext i8 %0 to i64
  %arrayidx2.i = getelementptr [256 x i8], ptr @AES_isbox, i64 0, i64 %idxprom1.i
  %1 = load i8, ptr %arrayidx2.i, align 1
  %arrayidx8.i = getelementptr i8, ptr %s, i64 2
  %2 = load i8, ptr %arrayidx8.i, align 1
  %idxprom9.i = zext i8 %2 to i64
  %arrayidx10.i = getelementptr [256 x i8], ptr @AES_isbox, i64 0, i64 %idxprom9.i
  %3 = load i8, ptr %arrayidx10.i, align 1
  %arrayidx16.i = getelementptr i8, ptr %s, i64 5
  %4 = load i8, ptr %arrayidx16.i, align 1
  %idxprom17.i = zext i8 %4 to i64
  %arrayidx18.i = getelementptr [256 x i8], ptr @AES_isbox, i64 0, i64 %idxprom17.i
  %5 = load i8, ptr %arrayidx18.i, align 1
  %arrayidx24.i = getelementptr i8, ptr %s, i64 8
  %6 = load i8, ptr %arrayidx24.i, align 1
  %idxprom25.i = zext i8 %6 to i64
  %arrayidx26.i = getelementptr [256 x i8], ptr @AES_isbox, i64 0, i64 %idxprom25.i
  %7 = load i8, ptr %arrayidx26.i, align 1
  %arrayidx32.i = getelementptr i8, ptr %s, i64 11
  %8 = load i8, ptr %arrayidx32.i, align 1
  %idxprom33.i = zext i8 %8 to i64
  %arrayidx34.i = getelementptr [256 x i8], ptr @AES_isbox, i64 0, i64 %idxprom33.i
  %9 = load i8, ptr %arrayidx34.i, align 1
  %arrayidx40.i = getelementptr i8, ptr %s, i64 14
  %10 = load i8, ptr %arrayidx40.i, align 1
  %idxprom41.i = zext i8 %10 to i64
  %arrayidx42.i = getelementptr [256 x i8], ptr @AES_isbox, i64 0, i64 %idxprom41.i
  %11 = load i8, ptr %arrayidx42.i, align 1
  %arrayidx48.i = getelementptr i8, ptr %s, i64 1
  %12 = load i8, ptr %arrayidx48.i, align 1
  %idxprom49.i = zext i8 %12 to i64
  %arrayidx50.i = getelementptr [256 x i8], ptr @AES_isbox, i64 0, i64 %idxprom49.i
  %13 = load i8, ptr %arrayidx50.i, align 1
  %arrayidx56.i = getelementptr i8, ptr %s, i64 4
  %14 = load i8, ptr %arrayidx56.i, align 1
  %idxprom57.i = zext i8 %14 to i64
  %arrayidx58.i = getelementptr [256 x i8], ptr @AES_isbox, i64 0, i64 %idxprom57.i
  %15 = load i8, ptr %arrayidx58.i, align 1
  %arrayidx64.i = getelementptr i8, ptr %s, i64 7
  %16 = load i8, ptr %arrayidx64.i, align 1
  %idxprom65.i = zext i8 %16 to i64
  %arrayidx66.i = getelementptr [256 x i8], ptr @AES_isbox, i64 0, i64 %idxprom65.i
  %17 = load i8, ptr %arrayidx66.i, align 1
  %arrayidx72.i = getelementptr i8, ptr %s, i64 10
  %18 = load i8, ptr %arrayidx72.i, align 1
  %idxprom73.i = zext i8 %18 to i64
  %arrayidx74.i = getelementptr [256 x i8], ptr @AES_isbox, i64 0, i64 %idxprom73.i
  %19 = load i8, ptr %arrayidx74.i, align 1
  %arrayidx80.i = getelementptr i8, ptr %s, i64 13
  %20 = load i8, ptr %arrayidx80.i, align 1
  %idxprom81.i = zext i8 %20 to i64
  %arrayidx82.i = getelementptr [256 x i8], ptr @AES_isbox, i64 0, i64 %idxprom81.i
  %21 = load i8, ptr %arrayidx82.i, align 1
  %22 = load i8, ptr %s, align 1
  %idxprom89.i = zext i8 %22 to i64
  %arrayidx90.i = getelementptr [256 x i8], ptr @AES_isbox, i64 0, i64 %idxprom89.i
  %23 = load i8, ptr %arrayidx90.i, align 1
  %arrayidx96.i = getelementptr i8, ptr %s, i64 3
  %24 = load i8, ptr %arrayidx96.i, align 1
  %idxprom97.i = zext i8 %24 to i64
  %arrayidx98.i = getelementptr [256 x i8], ptr @AES_isbox, i64 0, i64 %idxprom97.i
  %25 = load i8, ptr %arrayidx98.i, align 1
  %arrayidx104.i = getelementptr i8, ptr %s, i64 6
  %26 = load i8, ptr %arrayidx104.i, align 1
  %idxprom105.i = zext i8 %26 to i64
  %arrayidx106.i = getelementptr [256 x i8], ptr @AES_isbox, i64 0, i64 %idxprom105.i
  %27 = load i8, ptr %arrayidx106.i, align 1
  %arrayidx112.i = getelementptr i8, ptr %s, i64 9
  %28 = load i8, ptr %arrayidx112.i, align 1
  %idxprom113.i = zext i8 %28 to i64
  %arrayidx114.i = getelementptr [256 x i8], ptr @AES_isbox, i64 0, i64 %idxprom113.i
  %29 = load i8, ptr %arrayidx114.i, align 1
  %arrayidx120.i = getelementptr i8, ptr %s, i64 12
  %30 = load i8, ptr %arrayidx120.i, align 1
  %idxprom121.i = zext i8 %30 to i64
  %arrayidx122.i = getelementptr [256 x i8], ptr @AES_isbox, i64 0, i64 %idxprom121.i
  %31 = load i8, ptr %arrayidx122.i, align 1
  %32 = insertelement <16 x i8> poison, i8 %31, i64 0
  %33 = insertelement <16 x i8> %32, i8 %29, i64 1
  %34 = insertelement <16 x i8> %33, i8 %27, i64 2
  %35 = insertelement <16 x i8> %34, i8 %25, i64 3
  %36 = insertelement <16 x i8> %35, i8 %23, i64 4
  %37 = insertelement <16 x i8> %36, i8 %21, i64 5
  %38 = insertelement <16 x i8> %37, i8 %19, i64 6
  %39 = insertelement <16 x i8> %38, i8 %17, i64 7
  %40 = insertelement <16 x i8> %39, i8 %15, i64 8
  %41 = insertelement <16 x i8> %40, i8 %13, i64 9
  %42 = insertelement <16 x i8> %41, i8 %11, i64 10
  %43 = insertelement <16 x i8> %42, i8 %9, i64 11
  %44 = insertelement <16 x i8> %43, i8 %7, i64 12
  %45 = insertelement <16 x i8> %44, i8 %5, i64 13
  %46 = insertelement <16 x i8> %45, i8 %3, i64 14
  %t.i.sroa.0.0.vec.insert = insertelement <16 x i8> %46, i8 %1, i64 15
  %xor126.i = xor <16 x i8> %t.i.sroa.0.0.vec.insert, %k.val
  store <16 x i8> %xor126.i, ptr %r, align 16
  ret void
}